; Function Attrs: mustprogress uwtable
define dso_local void @_ZN7doctest6detail13ResultBuilderC2ENS_10assertType4EnumEPKciS5_S5_RKNS_6StringE(ptr noundef nonnull writeonly align 8 captures(none) dereferenceable(144) initializes((0, 12), (16, 28), (32, 42), (48, 49), (71, 73), (95, 97), (104, 112), (135, 136)) %0, i32 noundef %1, ptr noundef %2, i32 noundef %3, ptr noundef %4, ptr noundef %5, ptr noundef nonnull readonly align 8 captures(none) dereferenceable(24) %6) unnamed_addr #8 align 2 personality ptr @__gxx_personality_v0 {
  %8 = alloca %"class.doctest::AssertData::StringContains", align 8
  call void @llvm.lifetime.start.p0(i64 32, ptr nonnull %8) #49
  %9 = getelementptr inbounds nuw i8, ptr %6, i64 23
  %10 = load i8, ptr %9, align 1, !tbaa !38
  %11 = icmp sgt i8 %10, -1
  br i1 %11, label %12, label %13

12:                                               ; preds = %7
  call void @llvm.memcpy.p0.p0.i64(ptr noundef nonnull align 8 dereferenceable(25) %8, ptr noundef nonnull readonly align 8 dereferenceable(24) %6, i64 24, i1 false)
  br label %_ZN7doctest10AssertData14StringContainsC2ERKNS_6StringE.exit

13:                                               ; preds = %7
  %14 = getelementptr inbounds nuw i8, ptr %6, i64 8
  %15 = load i32, ptr %14, align 8, !tbaa !38
  %16 = icmp ult i32 %15, 24
  br i1 %16, label %17, label %23

17:                                               ; preds = %13
  %18 = zext nneg i32 %15 to i64
  %19 = getelementptr inbounds nuw [24 x i8], ptr %8, i64 0, i64 %18
  store i8 0, ptr %19, align 1, !tbaa !38
  %20 = trunc nuw i32 %15 to i8
  %21 = sub nuw nsw i8 23, %20
  %22 = getelementptr inbounds nuw i8, ptr %8, i64 23
  store i8 %21, ptr %22, align 1, !tbaa !38
  br label %_ZN7doctest6String8allocateEj.exit.i.i.i.i

23:                                               ; preds = %13
  %24 = getelementptr inbounds nuw i8, ptr %8, i64 23
  store i8 -128, ptr %24, align 1, !tbaa !38
  %25 = getelementptr inbounds nuw i8, ptr %8, i64 8
  store i32 %15, ptr %25, align 8, !tbaa !38
  %26 = add i32 %15, 1
  %27 = getelementptr inbounds nuw i8, ptr %8, i64 12
  store i32 %26, ptr %27, align 4, !tbaa !38
  %28 = zext i32 %26 to i64
  %29 = tail call noalias noundef nonnull ptr @_Znam(i64 noundef %28) #51
  store ptr %29, ptr %8, align 8, !tbaa !38
  %30 = zext i32 %15 to i64
  %31 = getelementptr inbounds nuw i8, ptr %29, i64 %30
  store i8 0, ptr %31, align 1, !tbaa !38
  br label %_ZN7doctest6String8allocateEj.exit.i.i.i.i

_ZN7doctest6String8allocateEj.exit.i.i.i.i:       ; preds = %23, %17
  %.pre-phi9 = phi i64 [ %30, %23 ], [ %18, %17 ]
  %.0.i.i.i.i.i = phi ptr [ %29, %23 ], [ %8, %17 ]
  %32 = load ptr, ptr %6, align 8, !tbaa !38
  call void @llvm.memcpy.p0.p0.i64(ptr nonnull align 1 %.0.i.i.i.i.i, ptr align 1 %32, i64 %.pre-phi9, i1 false)
  br label %_ZN7doctest10AssertData14StringContainsC2ERKNS_6StringE.exit

_ZN7doctest10AssertData14StringContainsC2ERKNS_6StringE.exit: ; preds = %12, %_ZN7doctest6String8allocateEj.exit.i.i.i.i
  %33 = load ptr, ptr @_ZN7doctest6detail4g_csE, align 8, !tbaa !73
  %34 = getelementptr inbounds nuw i8, ptr %33, i64 32
  %35 = load ptr, ptr %34, align 8, !tbaa !292
  store ptr %35, ptr %0, align 8, !tbaa !293
  %36 = getelementptr inbounds nuw i8, ptr %0, i64 8
  store i32 %1, ptr %36, align 8, !tbaa !298
  %37 = getelementptr inbounds nuw i8, ptr %0, i64 16
  store ptr %2, ptr %37, align 8, !tbaa !299
  %38 = getelementptr inbounds nuw i8, ptr %0, i64 24
  store i32 %3, ptr %38, align 8, !tbaa !300
  %39 = getelementptr inbounds nuw i8, ptr %0, i64 32
  store ptr %4, ptr %39, align 8, !tbaa !301
  %40 = getelementptr inbounds nuw i8, ptr %0, i64 40
  store i8 1, ptr %40, align 8, !tbaa !302
  %41 = getelementptr inbounds nuw i8, ptr %0, i64 41
  store i8 0, ptr %41, align 1, !tbaa !303
  %42 = getelementptr inbounds nuw i8, ptr %0, i64 48
  store i8 0, ptr %42, align 8, !tbaa !38
  %43 = getelementptr inbounds nuw i8, ptr %0, i64 71
  store i8 23, ptr %43, align 1, !tbaa !38
  %44 = getelementptr inbounds nuw i8, ptr %0, i64 72
  store i8 0, ptr %44, align 8, !tbaa !38
  %45 = getelementptr inbounds nuw i8, ptr %0, i64 95
  store i8 23, ptr %45, align 1, !tbaa !38
  %46 = getelementptr inbounds nuw i8, ptr %0, i64 96
  store i8 0, ptr %46, align 8, !tbaa !304
  %47 = getelementptr inbounds nuw i8, ptr %0, i64 104
  store ptr %5, ptr %47, align 8, !tbaa !305
  %48 = getelementptr inbounds nuw i8, ptr %0, i64 112
  %49 = getelementptr inbounds nuw i8, ptr %8, i64 23
  %50 = load i8, ptr %49, align 1, !tbaa !38
  %51 = icmp sgt i8 %50, -1
  br i1 %51, label %.thread, label %53

.thread:                                          ; preds = %_ZN7doctest10AssertData14StringContainsC2ERKNS_6StringE.exit
  call void @llvm.memcpy.p0.p0.i64(ptr noundef nonnull align 8 dereferenceable(25) %48, ptr noundef nonnull readonly align 8 dereferenceable(25) %8, i64 24, i1 false)
  %52 = getelementptr inbounds nuw i8, ptr %0, i64 136
  store i8 0, ptr %52, align 8, !tbaa !306
  br label %_ZN7doctest10AssertData14StringContainsD2Ev.exit

53:                                               ; preds = %_ZN7doctest10AssertData14StringContainsC2ERKNS_6StringE.exit
  %54 = getelementptr inbounds nuw i8, ptr %8, i64 8
  %55 = load i32, ptr %54, align 8, !tbaa !38
  %56 = icmp ult i32 %55, 24
  br i1 %56, label %57, label %.noexc.i

57:                                               ; preds = %53
  %58 = zext nneg i32 %55 to i64
  %59 = getelementptr inbounds nuw [24 x i8], ptr %48, i64 0, i64 %58
  store i8 0, ptr %59, align 1, !tbaa !38
  %60 = trunc nuw i32 %55 to i8
  %61 = sub nuw nsw i8 23, %60
  %62 = getelementptr inbounds nuw i8, ptr %0, i64 135
  store i8 %61, ptr %62, align 1, !tbaa !38
  br label %71

.noexc.i:                                         ; preds = %53
  %63 = getelementptr inbounds nuw i8, ptr %0, i64 135
  store i8 -128, ptr %63, align 1, !tbaa !38
  %64 = getelementptr inbounds nuw i8, ptr %0, i64 120
  store i32 %55, ptr %64, align 8, !tbaa !38
  %65 = add i32 %55, 1
  %66 = getelementptr inbounds nuw i8, ptr %0, i64 124
  store i32 %65, ptr %66, align 4, !tbaa !38
  %67 = zext i32 %65 to i64
  %68 = invoke noalias noundef nonnull ptr @_Znam(i64 noundef %67) #51
          to label %.noexc unwind label %76

.noexc:                                           ; preds = %.noexc.i
  store ptr %68, ptr %48, align 8, !tbaa !38
  %69 = zext i32 %55 to i64
  %70 = getelementptr inbounds nuw i8, ptr %68, i64 %69
  store i8 0, ptr %70, align 1, !tbaa !38
  br label %71

71:                                               ; preds = %.noexc, %57
  %.pre-phi = phi i64 [ %69, %.noexc ], [ %58, %57 ]
  %.0.i.i.i.i.i.i = phi ptr [ %68, %.noexc ], [ %48, %57 ]
  %72 = load ptr, ptr %8, align 8, !tbaa !38
  tail call void @llvm.memcpy.p0.p0.i64(ptr nonnull align 1 %.0.i.i.i.i.i.i, ptr align 1 %72, i64 %.pre-phi, i1 false)
  %73 = getelementptr inbounds nuw i8, ptr %0, i64 136
  store i8 0, ptr %73, align 8, !tbaa !306
  %74 = icmp eq ptr %72, null
  br i1 %74, label %_ZN7doctest10AssertData14StringContainsD2Ev.exit, label %75

75:                                               ; preds = %71
  tail call void @_ZdaPv(ptr noundef nonnull %72) #48
  br label %_ZN7doctest10AssertData14StringContainsD2Ev.exit

_ZN7doctest10AssertData14StringContainsD2Ev.exit: ; preds = %.thread, %71, %75
  call void @llvm.lifetime.end.p0(i64 32, ptr nonnull %8) #49
  ret void

76:                                               ; preds = %.noexc.i
  %77 = landingpad { ptr, i32 }
          cleanup
  %78 = load ptr, ptr %8, align 8, !tbaa !38
  %79 = icmp eq ptr %78, null
  br i1 %79, label %_ZN7doctest10AssertData14StringContainsD2Ev.exit8, label %80

80:                                               ; preds = %76
  tail call void @_ZdaPv(ptr noundef nonnull %78) #48
  br label %_ZN7doctest10AssertData14StringContainsD2Ev.exit8

_ZN7doctest10AssertData14StringContainsD2Ev.exit8: ; preds = %76, %80
  call void @llvm.lifetime.end.p0(i64 32, ptr nonnull %8) #49
  resume { ptr, i32 } %77
}